target datalayout = "e-m:e-p270:32:32-p271:32:32-p272:64:64-i64:64-i128:128-f80:128-n8:16:32:64-S128"
target triple = "x86_64-pc-linux-gnu"

%struct.MinRegMan_t_ = type { i32, i32, i32, i32, i32, i32, i32, i32, i32, i32, i32, ptr, i32, i32, i32, i32, i32, i32, i32, i32, i32, ptr, ptr, ptr, ptr, ptr, ptr, ptr, ptr, ptr, i32 }
%struct.Abc_Ntk_t_ = type { i32, i32, ptr, ptr, ptr, ptr, ptr, ptr, ptr, ptr, ptr, ptr, ptr, [11 x i32], i32, i32, i32, i32, ptr, i32, ptr, ptr, i32, i32, i32, double, i32, %struct.Vec_Int_t_, ptr, ptr, ptr, ptr, ptr, float, i32, ptr, ptr, ptr, ptr, ptr, ptr, ptr, ptr, ptr, ptr, ptr, ptr, ptr, ptr, ptr, ptr, ptr, ptr, ptr, ptr, ptr, ptr }
%struct.Vec_Int_t_ = type { i32, i32, ptr }
%struct.Abc_Obj_t_ = type { ptr, ptr, i32, i32, %struct.Vec_Int_t_, %struct.Vec_Int_t_, %union.anon.0, %union.anon.1 }
%union.anon.0 = type { ptr }
%union.anon.1 = type { ptr }

@pManMR = external global ptr, align 8

; Function Attrs: inlinehint nounwind uwtable
define internal ptr @Abc_ObjRegular(ptr noundef %0) #2 {
  %2 = alloca ptr, align 8
  store ptr %0, ptr %2, align 8, !tbaa !34
  %3 = load ptr, ptr %2, align 8, !tbaa !34
  %4 = ptrtoint ptr %3 to i64
  %5 = and i64 %4, -2
  %6 = inttoptr i64 %5 to ptr
  ret ptr %6
}

; Function Attrs: inlinehint nounwind uwtable
define internal i32 @Abc_ObjType(ptr noundef %0) #2 {
  %2 = alloca ptr, align 8
  store ptr %0, ptr %2, align 8, !tbaa !34
  %3 = load ptr, ptr %2, align 8, !tbaa !34
  %4 = getelementptr inbounds nuw %struct.Abc_Obj_t_, ptr %3, i32 0, i32 3
  %5 = load i32, ptr %4, align 4
  %6 = and i32 %5, 15
  ret i32 %6
}

; Function Attrs: inlinehint nounwind uwtable
define internal i32 @Abc_NtkHasMapping(ptr noundef %0) #2 {
  %2 = alloca ptr, align 8
  store ptr %0, ptr %2, align 8, !tbaa !3
  %3 = load ptr, ptr %2, align 8, !tbaa !3
  %4 = getelementptr inbounds nuw %struct.Abc_Ntk_t_, ptr %3, i32 0, i32 1
  %5 = load i32, ptr %4, align 4, !tbaa !61
  %6 = icmp eq i32 %5, 4
  %7 = zext i1 %6 to i32
  ret i32 %7
}

; Function Attrs: inlinehint nounwind uwtable
define internal i32 @Abc_ObjIsNode(ptr noundef %0) #2 {
  %2 = alloca ptr, align 8
  store ptr %0, ptr %2, align 8, !tbaa !34
  %3 = load ptr, ptr %2, align 8, !tbaa !34
  %4 = getelementptr inbounds nuw %struct.Abc_Obj_t_, ptr %3, i32 0, i32 3
  %5 = load i32, ptr %4, align 4
  %6 = and i32 %5, 15
  %7 = icmp eq i32 %6, 7
  %8 = zext i1 %7 to i32
  ret i32 %8
}

; Function Attrs: inlinehint nounwind uwtable
define internal i32 @Abc_AigNodeIsConst(ptr noundef %0) #2 {
  %2 = alloca ptr, align 8
  store ptr %0, ptr %2, align 8, !tbaa !34
  %3 = load ptr, ptr %2, align 8, !tbaa !34
  %4 = call ptr @Abc_ObjRegular(ptr noundef %3)
  %5 = getelementptr inbounds nuw %struct.Abc_Obj_t_, ptr %4, i32 0, i32 3
  %6 = load i32, ptr %5, align 4
  %7 = and i32 %6, 15
  %8 = icmp eq i32 %7, 1
  %9 = zext i1 %8 to i32
  ret i32 %9
}

; Function Attrs: inlinehint nounwind uwtable
define internal i32 @Abc_NtkIsStrash(ptr noundef %0) #2 {
  %2 = alloca ptr, align 8
  store ptr %0, ptr %2, align 8, !tbaa !3
  %3 = load ptr, ptr %2, align 8, !tbaa !3
  %4 = getelementptr inbounds nuw %struct.Abc_Ntk_t_, ptr %3, i32 0, i32 0
  %5 = load i32, ptr %4, align 8, !tbaa !60
  %6 = icmp eq i32 %5, 3
  %7 = zext i1 %6 to i32
  ret i32 %7
}

; Function Attrs: inlinehint nounwind uwtable
define internal i32 @Abc_ObjIsBo(ptr noundef %0) #2 {
  %2 = alloca ptr, align 8
  store ptr %0, ptr %2, align 8, !tbaa !34
  %3 = load ptr, ptr %2, align 8, !tbaa !34
  %4 = getelementptr inbounds nuw %struct.Abc_Obj_t_, ptr %3, i32 0, i32 3
  %5 = load i32, ptr %4, align 4
  %6 = and i32 %5, 15
  %7 = icmp eq i32 %6, 5
  %8 = zext i1 %7 to i32
  ret i32 %8
}

; Function Attrs: inlinehint nounwind uwtable
define internal i32 @Abc_ObjIsBi(ptr noundef %0) #2 {
  %2 = alloca ptr, align 8
  store ptr %0, ptr %2, align 8, !tbaa !34
  %3 = load ptr, ptr %2, align 8, !tbaa !34
  %4 = getelementptr inbounds nuw %struct.Abc_Obj_t_, ptr %3, i32 0, i32 3
  %5 = load i32, ptr %4, align 4
  %6 = and i32 %5, 15
  %7 = icmp eq i32 %6, 4
  %8 = zext i1 %7 to i32
  ret i32 %8
}

; Function Attrs: nounwind uwtable
define ptr @Abc_FlowRetime_CopyNodeToInitNtk(ptr noundef %0) #0 {
  %2 = alloca ptr, align 8
  %3 = alloca ptr, align 8
  %4 = alloca ptr, align 8
  %5 = alloca ptr, align 8
  %6 = alloca ptr, align 8
  %7 = alloca ptr, align 8
  %8 = alloca [2 x i32], align 4
  %9 = alloca i32, align 4
  store ptr %0, ptr %3, align 8, !tbaa !34
  call void @llvm.lifetime.start.p0(i64 8, ptr %4) #10
  %10 = load ptr, ptr @pManMR, align 8, !tbaa !8
  %11 = getelementptr inbounds nuw %struct.MinRegMan_t_, ptr %10, i32 0, i32 11
  %12 = load ptr, ptr %11, align 8, !tbaa !82
  store ptr %12, ptr %4, align 8, !tbaa !3
  call void @llvm.lifetime.start.p0(i64 8, ptr %5) #10
  %13 = load ptr, ptr @pManMR, align 8, !tbaa !8
  %14 = getelementptr inbounds nuw %struct.MinRegMan_t_, ptr %13, i32 0, i32 27
  %15 = load ptr, ptr %14, align 8, !tbaa !40
  store ptr %15, ptr %5, align 8, !tbaa !3
  call void @llvm.lifetime.start.p0(i64 8, ptr %6) #10
  call void @llvm.lifetime.start.p0(i64 8, ptr %7) #10
  call void @llvm.lifetime.start.p0(i64 8, ptr %8) #10
  %16 = load ptr, ptr %3, align 8, !tbaa !34
  %17 = call i32 @Abc_ObjIsBi(ptr noundef %16)
  %18 = icmp ne i32 %17, 0
  br i1 %18, label %23, label %19

19:                                               ; preds = %1
  %20 = load ptr, ptr %3, align 8, !tbaa !34
  %21 = call i32 @Abc_ObjIsBo(ptr noundef %20)
  %22 = icmp ne i32 %21, 0
  br i1 %22, label %23, label %28

23:                                               ; preds = %19, %1
  %24 = load ptr, ptr %5, align 8, !tbaa !3
  %25 = call ptr @Abc_NtkCreateNodeBuf(ptr noundef %24, ptr noundef null)
  store ptr %25, ptr %6, align 8, !tbaa !34
  %26 = load ptr, ptr %6, align 8, !tbaa !34
  call void @Abc_FlowRetime_ClearInitToOrig(ptr noundef %26)
  %27 = load ptr, ptr %6, align 8, !tbaa !34
  store ptr %27, ptr %2, align 8
  store i32 1, ptr %9, align 4
  br label %128

28:                                               ; preds = %19
  %29 = load ptr, ptr %4, align 8, !tbaa !3
  %30 = call i32 @Abc_NtkIsStrash(ptr noundef %29)
  %31 = icmp ne i32 %30, 0
  br i1 %31, label %32, label %79

32:                                               ; preds = %28
  %33 = load ptr, ptr %3, align 8, !tbaa !34
  %34 = call i32 @Abc_AigNodeIsConst(ptr noundef %33)
  %35 = icmp ne i32 %34, 0
  br i1 %35, label %36, label %39

36:                                               ; preds = %32
  %37 = load ptr, ptr %5, align 8, !tbaa !3
  %38 = call ptr @Abc_NtkCreateNodeConst1(ptr noundef %37)
  store ptr %38, ptr %2, align 8
  store i32 1, ptr %9, align 4
  br label %128

39:                                               ; preds = %32
  %40 = load ptr, ptr %3, align 8, !tbaa !34
  %41 = call i32 @Abc_ObjIsNode(ptr noundef %40)
  %42 = icmp ne i32 %41, 0
  br i1 %42, label %48, label %43

43:                                               ; preds = %39
  %44 = load ptr, ptr %5, align 8, !tbaa !3
  %45 = call ptr @Abc_NtkCreateNodeBuf(ptr noundef %44, ptr noundef null)
  store ptr %45, ptr %6, align 8, !tbaa !34
  %46 = load ptr, ptr %6, align 8, !tbaa !34
  call void @Abc_FlowRetime_ClearInitToOrig(ptr noundef %46)
  %47 = load ptr, ptr %6, align 8, !tbaa !34
  store ptr %47, ptr %2, align 8
  store i32 1, ptr %9, align 4
  br label %128

48:                                               ; preds = %39
  %49 = load ptr, ptr %5, align 8, !tbaa !3
  %50 = call ptr @Abc_NtkCreateObj(ptr noundef %49, i32 noundef 7)
  store ptr %50, ptr %6, align 8, !tbaa !34
  %51 = load ptr, ptr %3, align 8, !tbaa !34
  %52 = getelementptr inbounds nuw %struct.Abc_Obj_t_, ptr %51, i32 0, i32 3
  %53 = load i32, ptr %52, align 4
  %54 = lshr i32 %53, 10
  %55 = and i32 %54, 1
  %56 = icmp ne i32 %55, 0
  %57 = select i1 %56, i32 1, i32 0
  %58 = getelementptr inbounds [2 x i32], ptr %8, i64 0, i64 0
  store i32 %57, ptr %58, align 4, !tbaa !19
  %59 = load ptr, ptr %3, align 8, !tbaa !34
  %60 = getelementptr inbounds nuw %struct.Abc_Obj_t_, ptr %59, i32 0, i32 3
  %61 = load i32, ptr %60, align 4
  %62 = lshr i32 %61, 11
  %63 = and i32 %62, 1
  %64 = icmp ne i32 %63, 0
  %65 = select i1 %64, i32 1, i32 0
  %66 = getelementptr inbounds [2 x i32], ptr %8, i64 0, i64 1
  store i32 %65, ptr %66, align 4, !tbaa !19
  %67 = load ptr, ptr %5, align 8, !tbaa !3
  %68 = getelementptr inbounds nuw %struct.Abc_Ntk_t_, ptr %67, i32 0, i32 30
  %69 = load ptr, ptr %68, align 8, !tbaa !83
  %70 = getelementptr inbounds [2 x i32], ptr %8, i64 0, i64 0
  %71 = call ptr @Abc_SopCreateAnd(ptr noundef %69, i32 noundef 2, ptr noundef %70)
  store ptr %71, ptr %7, align 8, !tbaa !57
  %72 = load ptr, ptr %5, align 8, !tbaa !3
  %73 = getelementptr inbounds nuw %struct.Abc_Ntk_t_, ptr %72, i32 0, i32 30
  %74 = load ptr, ptr %73, align 8, !tbaa !83
  %75 = load ptr, ptr %7, align 8, !tbaa !57
  %76 = call ptr @Abc_SopRegister(ptr noundef %74, ptr noundef %75)
  %77 = load ptr, ptr %6, align 8, !tbaa !34
  %78 = getelementptr inbounds nuw %struct.Abc_Obj_t_, ptr %77, i32 0, i32 6
  store ptr %76, ptr %78, align 8, !tbaa !42
  br label %126

79:                                               ; preds = %28
  %80 = load ptr, ptr %4, align 8, !tbaa !3
  %81 = call i32 @Abc_NtkHasMapping(ptr noundef %80)
  %82 = icmp ne i32 %81, 0
  br i1 %82, label %83, label %109

83:                                               ; preds = %79
  %84 = load ptr, ptr %3, align 8, !tbaa !34
  %85 = getelementptr inbounds nuw %struct.Abc_Obj_t_, ptr %84, i32 0, i32 6
  %86 = load ptr, ptr %85, align 8, !tbaa !42
  %87 = icmp ne ptr %86, null
  br i1 %87, label %93, label %88

88:                                               ; preds = %83
  %89 = load ptr, ptr %5, align 8, !tbaa !3
  %90 = call ptr @Abc_NtkCreateNodeBuf(ptr noundef %89, ptr noundef null)
  store ptr %90, ptr %6, align 8, !tbaa !34
  %91 = load ptr, ptr %6, align 8, !tbaa !34
  call void @Abc_FlowRetime_ClearInitToOrig(ptr noundef %91)
  %92 = load ptr, ptr %6, align 8, !tbaa !34
  store ptr %92, ptr %2, align 8
  store i32 1, ptr %9, align 4
  br label %128

93:                                               ; preds = %83
  %94 = load ptr, ptr %5, align 8, !tbaa !3
  %95 = load ptr, ptr %3, align 8, !tbaa !34
  %96 = call i32 @Abc_ObjType(ptr noundef %95)
  %97 = call ptr @Abc_NtkCreateObj(ptr noundef %94, i32 noundef %96)
  store ptr %97, ptr %6, align 8, !tbaa !34
  %98 = load ptr, ptr %3, align 8, !tbaa !34
  %99 = getelementptr inbounds nuw %struct.Abc_Obj_t_, ptr %98, i32 0, i32 6
  %100 = load ptr, ptr %99, align 8, !tbaa !42
  %101 = call ptr @Mio_GateReadSop(ptr noundef %100)
  store ptr %101, ptr %7, align 8, !tbaa !57
  %102 = load ptr, ptr %5, align 8, !tbaa !3
  %103 = getelementptr inbounds nuw %struct.Abc_Ntk_t_, ptr %102, i32 0, i32 30
  %104 = load ptr, ptr %103, align 8, !tbaa !83
  %105 = load ptr, ptr %7, align 8, !tbaa !57
  %106 = call ptr @Abc_SopRegister(ptr noundef %104, ptr noundef %105)
  %107 = load ptr, ptr %6, align 8, !tbaa !34
  %108 = getelementptr inbounds nuw %struct.Abc_Obj_t_, ptr %107, i32 0, i32 6
  store ptr %106, ptr %108, align 8, !tbaa !42
  br label %125

109:                                              ; preds = %79
  %110 = load ptr, ptr %5, align 8, !tbaa !3
  %111 = load ptr, ptr %3, align 8, !tbaa !34
  %112 = call ptr @Abc_NtkDupObj(ptr noundef %110, ptr noundef %111, i32 noundef 0)
  store ptr %112, ptr %6, align 8, !tbaa !34
  %113 = load ptr, ptr %3, align 8, !tbaa !34
  %114 = getelementptr inbounds nuw %struct.Abc_Obj_t_, ptr %113, i32 0, i32 3
  %115 = load i32, ptr %114, align 4
  %116 = lshr i32 %115, 7
  %117 = and i32 %116, 1
  %118 = load ptr, ptr %6, align 8, !tbaa !34
  %119 = getelementptr inbounds nuw %struct.Abc_Obj_t_, ptr %118, i32 0, i32 3
  %120 = load i32, ptr %119, align 4
  %121 = and i32 %117, 1
  %122 = shl i32 %121, 7
  %123 = and i32 %120, -129
  %124 = or i32 %123, %122
  store i32 %124, ptr %119, align 4
  br label %125

125:                                              ; preds = %109, %93
  br label %126

126:                                              ; preds = %125, %48
  %127 = load ptr, ptr %6, align 8, !tbaa !34
  store ptr %127, ptr %2, align 8
  store i32 1, ptr %9, align 4
  br label %128

128:                                              ; preds = %126, %88, %43, %36, %23
  call void @llvm.lifetime.end.p0(i64 8, ptr %8) #10
  call void @llvm.lifetime.end.p0(i64 8, ptr %7) #10
  call void @llvm.lifetime.end.p0(i64 8, ptr %6) #10
  call void @llvm.lifetime.end.p0(i64 8, ptr %5) #10
  call void @llvm.lifetime.end.p0(i64 8, ptr %4) #10
  %129 = load ptr, ptr %2, align 8
  ret ptr %129
}