; Function Attrs: nounwind uwtable
define ptr @Abc_FlowRetime_CopyNodeToInitNtk(ptr noundef %0) local_unnamed_addr #0 {
  %2 = alloca [2 x i32], align 4
  %3 = load ptr, ptr @pManMR, align 8, !tbaa !3
  %4 = getelementptr inbounds nuw i8, ptr %3, i64 48
  %5 = load ptr, ptr %4, align 8, !tbaa !94
  %6 = getelementptr inbounds nuw i8, ptr %3, i64 144
  %7 = load ptr, ptr %6, align 8, !tbaa !53
  call void @llvm.lifetime.start.p0(i64 8, ptr nonnull %2) #18
  %8 = getelementptr i8, ptr %0, i64 20
  %.val52 = load i32, ptr %8, align 4
  %9 = and i32 %.val52, 15
  %10 = and i32 %.val52, 14
  %switch = icmp eq i32 %10, 4
  br i1 %switch, label %11, label %38

11:                                               ; preds = %1
  %12 = tail call ptr @Abc_NtkCreateNodeBuf(ptr noundef %7, ptr noundef null) #18
  %13 = getelementptr i8, ptr %12, i64 16
  %.val51 = load i32, ptr %13, align 8, !tbaa !48
  %14 = load ptr, ptr @pManMR, align 8, !tbaa !3
  %15 = getelementptr inbounds nuw i8, ptr %14, i64 168
  %16 = load i32, ptr %15, align 8, !tbaa !54
  %.not.i = icmp slt i32 %.val51, %16
  br i1 %.not.i, label %._crit_edge.i, label %17

._crit_edge.i:                                    ; preds = %11
  %.phi.trans.insert.i = getelementptr inbounds nuw i8, ptr %14, i64 160
  %.pre.i = load ptr, ptr %.phi.trans.insert.i, align 8, !tbaa !55
  br label %Abc_FlowRetime_ClearInitToOrig.exit

17:                                               ; preds = %11
  %18 = sitofp i32 %.val51 to double
  %19 = tail call double @llvm.fmuladd.f64(double %18, double 1.500000e+00, double 1.000000e+01)
  %20 = fptosi double %19 to i32
  store i32 %20, ptr %15, align 8, !tbaa !54
  %21 = getelementptr inbounds nuw i8, ptr %14, i64 160
  %22 = load ptr, ptr %21, align 8, !tbaa !55
  %23 = sext i32 %20 to i64
  %24 = shl nsw i64 %23, 3
  %25 = tail call ptr @realloc(ptr noundef %22, i64 noundef %24) #19
  %26 = load ptr, ptr @pManMR, align 8, !tbaa !3
  %27 = getelementptr inbounds nuw i8, ptr %26, i64 160
  store ptr %25, ptr %27, align 8, !tbaa !55
  %28 = sext i32 %16 to i64
  %29 = getelementptr inbounds %struct.NodeLag_T_, ptr %25, i64 %28
  %30 = getelementptr inbounds nuw i8, ptr %26, i64 168
  %31 = load i32, ptr %30, align 8, !tbaa !54
  %32 = sub nsw i32 %31, %16
  %33 = sext i32 %32 to i64
  %34 = shl nsw i64 %33, 3
  tail call void @llvm.memset.p0.i64(ptr align 4 %29, i8 0, i64 %34, i1 false)
  br label %Abc_FlowRetime_ClearInitToOrig.exit

Abc_FlowRetime_ClearInitToOrig.exit:              ; preds = %._crit_edge.i, %17
  %35 = phi ptr [ %25, %17 ], [ %.pre.i, %._crit_edge.i ]
  %36 = sext i32 %.val51 to i64
  %37 = getelementptr inbounds %struct.NodeLag_T_, ptr %35, i64 %36
  store i32 -1, ptr %37, align 4, !tbaa !56
  br label %88

38:                                               ; preds = %1
  %.val46 = load i32, ptr %5, align 8, !tbaa !66
  %.not55 = icmp eq i32 %.val46, 3
  br i1 %.not55, label %39, label %64

39:                                               ; preds = %38
  %40 = ptrtoint ptr %0 to i64
  %41 = and i64 %40, -2
  %42 = inttoptr i64 %41 to ptr
  %43 = getelementptr inbounds nuw i8, ptr %42, i64 20
  %44 = load i32, ptr %43, align 4
  %45 = and i32 %44, 15
  %.not56 = icmp eq i32 %45, 1
  br i1 %.not56, label %46, label %48

46:                                               ; preds = %39
  %47 = tail call ptr @Abc_NtkCreateNodeConst1(ptr noundef %7) #18
  br label %88

48:                                               ; preds = %39
  %.not57 = icmp eq i32 %9, 7
  br i1 %.not57, label %52, label %49

49:                                               ; preds = %48
  %50 = tail call ptr @Abc_NtkCreateNodeBuf(ptr noundef %7, ptr noundef null) #18
  %51 = getelementptr i8, ptr %50, i64 16
  %.val50 = load i32, ptr %51, align 8, !tbaa !48
  tail call fastcc void @Abc_FlowRetime_ClearInitToOrig(i32 %.val50)
  br label %88

52:                                               ; preds = %48
  %53 = tail call ptr @Abc_NtkCreateObj(ptr noundef %7, i32 noundef 7) #18
  %54 = load i32, ptr %8, align 4
  %55 = lshr i32 %54, 10
  %.lobit = and i32 %55, 1
  store i32 %.lobit, ptr %2, align 4, !tbaa !37
  %56 = lshr i32 %54, 11
  %.lobit45 = and i32 %56, 1
  %57 = getelementptr inbounds nuw i8, ptr %2, i64 4
  store i32 %.lobit45, ptr %57, align 4, !tbaa !37
  %58 = getelementptr inbounds nuw i8, ptr %7, i64 256
  %59 = load ptr, ptr %58, align 8, !tbaa !65
  %60 = call ptr @Abc_SopCreateAnd(ptr noundef %59, i32 noundef 2, ptr noundef nonnull %2) #18
  %61 = load ptr, ptr %58, align 8, !tbaa !65
  %62 = call ptr @Abc_SopRegister(ptr noundef %61, ptr noundef %60) #18
  %63 = getelementptr inbounds nuw i8, ptr %53, i64 56
  store ptr %62, ptr %63, align 8, !tbaa !49
  br label %88

64:                                               ; preds = %38
  %65 = getelementptr i8, ptr %5, i64 4
  %.val48 = load i32, ptr %65, align 4, !tbaa !67
  %.not58 = icmp eq i32 %.val48, 4
  br i1 %.not58, label %66, label %80

66:                                               ; preds = %64
  %67 = getelementptr inbounds nuw i8, ptr %0, i64 56
  %68 = load ptr, ptr %67, align 8, !tbaa !49
  %.not40 = icmp eq ptr %68, null
  br i1 %.not40, label %69, label %72

69:                                               ; preds = %66
  %70 = tail call ptr @Abc_NtkCreateNodeBuf(ptr noundef %7, ptr noundef null) #18
  %71 = getelementptr i8, ptr %70, i64 16
  %.val49 = load i32, ptr %71, align 8, !tbaa !48
  tail call fastcc void @Abc_FlowRetime_ClearInitToOrig(i32 %.val49)
  br label %88

72:                                               ; preds = %66
  %73 = tail call ptr @Abc_NtkCreateObj(ptr noundef %7, i32 noundef %9) #18
  %74 = load ptr, ptr %67, align 8, !tbaa !49
  %75 = tail call ptr @Mio_GateReadSop(ptr noundef %74) #18
  %76 = getelementptr inbounds nuw i8, ptr %7, i64 256
  %77 = load ptr, ptr %76, align 8, !tbaa !65
  %78 = tail call ptr @Abc_SopRegister(ptr noundef %77, ptr noundef %75) #18
  %79 = getelementptr inbounds nuw i8, ptr %73, i64 56
  store ptr %78, ptr %79, align 8, !tbaa !49
  br label %88

80:                                               ; preds = %64
  %81 = tail call ptr @Abc_NtkDupObj(ptr noundef %7, ptr noundef nonnull %0, i32 noundef 0) #18
  %82 = load i32, ptr %8, align 4
  %83 = and i32 %82, 128
  %84 = getelementptr inbounds nuw i8, ptr %81, i64 20
  %85 = load i32, ptr %84, align 4
  %86 = and i32 %85, -129
  %87 = or disjoint i32 %86, %83
  store i32 %87, ptr %84, align 4
  br label %88

88:                                               ; preds = %52, %80, %72, %69, %49, %46, %Abc_FlowRetime_ClearInitToOrig.exit
  %.036 = phi ptr [ %12, %Abc_FlowRetime_ClearInitToOrig.exit ], [ %47, %46 ], [ %50, %49 ], [ %70, %69 ], [ %53, %52 ], [ %73, %72 ], [ %81, %80 ]
  call void @llvm.lifetime.end.p0(i64 8, ptr nonnull %2) #18
  ret ptr %.036
}